target datalayout = "e-m:e-p270:32:32-p271:32:32-p272:64:64-i64:64-i128:128-f80:128-n8:16:32:64-S128"
target triple = "x86_64-pc-linux-gnu"

%class.MallocLimitSet = type { %struct.malloclimit, [28 x %struct.malloclimit] }
%struct.malloclimit = type { i64, i32 }

; Function Attrs: mustprogress nounwind uwtable
define linkonce_odr hidden noundef i32 @_ZN7NMTUtil13flag_to_indexE8MEMFLAGS(i8 noundef zeroext %0) #1 comdat align 2 {
  %2 = alloca i8, align 1
  store i8 %0, ptr %2, align 1
  %3 = load i8, ptr %2, align 1
  %4 = zext i8 %3 to i32
  ret i32 %4
}

; Function Attrs: mustprogress nounwind uwtable
define hidden void @_ZN14MallocLimitSet18set_category_limitE8MEMFLAGSm15MallocLimitMode(ptr noundef nonnull align 8 dereferenceable(464) %0, i8 noundef zeroext %1, i64 noundef %2, i32 noundef %3) #1 align 2 {
  %5 = alloca ptr, align 8
  %6 = alloca i8, align 1
  %7 = alloca i64, align 8
  %8 = alloca i32, align 4
  %9 = alloca i32, align 4
  store ptr %0, ptr %5, align 8
  store i8 %1, ptr %6, align 1
  store i64 %2, ptr %7, align 8
  store i32 %3, ptr %8, align 4
  %10 = load ptr, ptr %5, align 8
  %11 = load i8, ptr %6, align 1
  %12 = call noundef i32 @_ZN7NMTUtil13flag_to_indexE8MEMFLAGS(i8 noundef zeroext %11)
  store i32 %12, ptr %9, align 4
  %13 = load i64, ptr %7, align 8
  %14 = getelementptr inbounds %class.MallocLimitSet, ptr %10, i32 0, i32 1
  %15 = load i32, ptr %9, align 4
  %16 = sext i32 %15 to i64
  %17 = getelementptr inbounds [28 x %struct.malloclimit], ptr %14, i64 0, i64 %16
  %18 = getelementptr inbounds %struct.malloclimit, ptr %17, i32 0, i32 0
  store i64 %13, ptr %18, align 8
  %19 = load i32, ptr %8, align 4
  %20 = getelementptr inbounds %class.MallocLimitSet, ptr %10, i32 0, i32 1
  %21 = load i32, ptr %9, align 4
  %22 = sext i32 %21 to i64
  %23 = getelementptr inbounds [28 x %struct.malloclimit], ptr %20, i64 0, i64 %22
  %24 = getelementptr inbounds %struct.malloclimit, ptr %23, i32 0, i32 1
  store i32 %19, ptr %24, align 8
  ret void
}

; Function Attrs: mustprogress nounwind uwtable
define linkonce_odr hidden noundef zeroext i8 @_ZN7NMTUtil13index_to_flagEi(i32 noundef %0) #1 comdat align 2 {
  %2 = alloca i32, align 4
  store i32 %0, ptr %2, align 4
  %3 = load i32, ptr %2, align 4
  %4 = trunc i32 %3 to i8
  ret i8 %4
}

; Function Attrs: mustprogress nounwind uwtable
define hidden void @_ZN14MallocLimitSet16set_global_limitEm15MallocLimitMode(ptr noundef nonnull align 8 dereferenceable(464) %0, i64 noundef %1, i32 noundef %2) #1 align 2 {
  %4 = alloca ptr, align 8
  %5 = alloca i64, align 8
  %6 = alloca i32, align 4
  store ptr %0, ptr %4, align 8
  store i64 %1, ptr %5, align 8
  store i32 %2, ptr %6, align 4
  %7 = load ptr, ptr %4, align 8
  %8 = load i64, ptr %5, align 8
  %9 = getelementptr inbounds %class.MallocLimitSet, ptr %7, i32 0, i32 0
  %10 = getelementptr inbounds %struct.malloclimit, ptr %9, i32 0, i32 0
  store i64 %8, ptr %10, align 8
  %11 = load i32, ptr %6, align 4
  %12 = getelementptr inbounds %class.MallocLimitSet, ptr %7, i32 0, i32 0
  %13 = getelementptr inbounds %struct.malloclimit, ptr %12, i32 0, i32 1
  store i32 %11, ptr %13, align 8
  ret void
}

; Function Attrs: mustprogress nounwind uwtable
define hidden void @_ZN14MallocLimitSet5resetEv(ptr noundef nonnull align 8 dereferenceable(464) %0) #1 align 2 {
  %2 = alloca ptr, align 8
  %3 = alloca i32, align 4
  store ptr %0, ptr %2, align 8
  %4 = load ptr, ptr %2, align 8
  call void @_ZN14MallocLimitSet16set_global_limitEm15MallocLimitMode(ptr noundef nonnull align 8 dereferenceable(464) %4, i64 noundef 0, i32 noundef 0)
  %5 = getelementptr inbounds %class.MallocLimitSet, ptr %4, i32 0, i32 0
  %6 = getelementptr inbounds %struct.malloclimit, ptr %5, i32 0, i32 0
  store i64 0, ptr %6, align 8
  %7 = getelementptr inbounds %class.MallocLimitSet, ptr %4, i32 0, i32 0
  %8 = getelementptr inbounds %struct.malloclimit, ptr %7, i32 0, i32 1
  store i32 0, ptr %8, align 8
  store i32 0, ptr %3, align 4
  br label %9

9:                                                ; preds = %15, %1
  %10 = load i32, ptr %3, align 4
  %11 = icmp slt i32 %10, 28
  br i1 %11, label %12, label %18

12:                                               ; preds = %9
  %13 = load i32, ptr %3, align 4
  %14 = call noundef zeroext i8 @_ZN7NMTUtil13index_to_flagEi(i32 noundef %13)
  call void @_ZN14MallocLimitSet18set_category_limitE8MEMFLAGSm15MallocLimitMode(ptr noundef nonnull align 8 dereferenceable(464) %4, i8 noundef zeroext %14, i64 noundef 0, i32 noundef 0)
  br label %15

15:                                               ; preds = %12
  %16 = load i32, ptr %3, align 4
  %17 = add nsw i32 %16, 1
  store i32 %17, ptr %3, align 4
  br label %9, !llvm.loop !6

18:                                               ; preds = %9
  ret void
}