; Function Attrs: mustprogress nofree norecurse nosync nounwind memory(argmem: write) uwtable
define hidden void @_ZN14MallocLimitSet5resetEv(ptr nocapture noundef nonnull writeonly align 8 dereferenceable(464) %0) local_unnamed_addr #0 align 2 {
  %2 = getelementptr inbounds i8, ptr %0, i64 16
  tail call void @llvm.memset.p0.i64(ptr noundef nonnull align 8 dereferenceable(12) %0, i8 0, i64 12, i1 false)
  br label %3

3:                                                ; preds = %1, %3
  %indvars.iv = phi i64 [ 0, %1 ], [ %indvars.iv.next, %3 ]
  %4 = getelementptr inbounds [28 x %struct.malloclimit], ptr %2, i64 0, i64 %indvars.iv
  store i64 0, ptr %4, align 8
  %5 = getelementptr inbounds i8, ptr %4, i64 8
  store i32 0, ptr %5, align 8
  %indvars.iv.next = add nuw nsw i64 %indvars.iv, 1
  %exitcond.not = icmp eq i64 %indvars.iv.next, 28
  br i1 %exitcond.not, label %6, label %3, !llvm.loop !6

6:                                                ; preds = %3
  ret void
}